; ModuleID = '5/436.c'
source_filename = "5/436.c"
target datalayout = "e-m:e-p270:32:32-p271:32:32-p272:64:64-i64:64-f80:128-n8:16:32:64-S128"
target triple = "x86_64-pc-linux-gnu"

@.str = private unnamed_addr constant [4 x i8] c"%lf\00", align 1
@.str.1 = private unnamed_addr constant [3 x i8] c"%s\00", align 1
@.str.2 = private unnamed_addr constant [6 x i8] c"error\00", align 1
@.str.3 = private unnamed_addr constant [3 x i8] c"no\00", align 1
@.str.4 = private unnamed_addr constant [4 x i8] c"yes\00", align 1

; Function Attrs: noinline nounwind uwtable
define dso_local i32 @main() #0 {
  %1 = alloca i32, align 4
  %2 = alloca i32, align 4
  %3 = alloca i32, align 4
  %4 = alloca i32, align 4
  %5 = alloca i32, align 4
  %6 = alloca i32, align 4
  %7 = alloca i32, align 4
  %8 = alloca [2 x [500 x i8]], align 16
  %9 = alloca double, align 8
  store i32 0, i32* %1, align 4
  store i32 0, i32* %2, align 4
  store i32 0, i32* %3, align 4
  store i32 0, i32* %5, align 4
  store i32 0, i32* %6, align 4
  store i32 0, i32* %7, align 4
  %10 = call i32 (i8*, ...) @__isoc99_scanf(i8* getelementptr inbounds ([4 x i8], [4 x i8]* @.str, i64 0, i64 0), double* %9)
  store i32 0, i32* %4, align 4
  br label %11

11:                                               ; preds = %20, %0
  %12 = load i32, i32* %4, align 4
  %13 = icmp slt i32 %12, 2
  br i1 %13, label %14, label %23

14:                                               ; preds = %11
  %15 = load i32, i32* %4, align 4
  %16 = sext i32 %15 to i64
  %17 = getelementptr inbounds [2 x [500 x i8]], [2 x [500 x i8]]* %8, i64 0, i64 %16
  %18 = getelementptr inbounds [500 x i8], [500 x i8]* %17, i64 0, i64 0
  %19 = call i32 (i8*, ...) @__isoc99_scanf(i8* getelementptr inbounds ([3 x i8], [3 x i8]* @.str.1, i64 0, i64 0), i8* %18)
  br label %20

20:                                               ; preds = %14
  %21 = load i32, i32* %4, align 4
  %22 = add nsw i32 %21, 1
  store i32 %22, i32* %4, align 4
  br label %11

23:                                               ; preds = %11
  store i32 0, i32* %4, align 4
  br label %24

24:                                               ; preds = %35, %23
  %25 = getelementptr inbounds [2 x [500 x i8]], [2 x [500 x i8]]* %8, i64 0, i64 0
  %26 = load i32, i32* %4, align 4
  %27 = sext i32 %26 to i64
  %28 = getelementptr inbounds [500 x i8], [500 x i8]* %25, i64 0, i64 %27
  %29 = load i8, i8* %28, align 1
  %30 = sext i8 %29 to i32
  %31 = icmp ne i32 %30, 0
  br i1 %31, label %32, label %38

32:                                               ; preds = %24
  %33 = load i32, i32* %5, align 4
  %34 = add nsw i32 %33, 1
  store i32 %34, i32* %5, align 4
  br label %35

35:                                               ; preds = %32
  %36 = load i32, i32* %4, align 4
  %37 = add nsw i32 %36, 1
  store i32 %37, i32* %4, align 4
  br label %24

38:                                               ; preds = %24
  store i32 0, i32* %4, align 4
  br label %39

39:                                               ; preds = %50, %38
  %40 = getelementptr inbounds [2 x [500 x i8]], [2 x [500 x i8]]* %8, i64 0, i64 1
  %41 = load i32, i32* %4, align 4
  %42 = sext i32 %41 to i64
  %43 = getelementptr inbounds [500 x i8], [500 x i8]* %40, i64 0, i64 %42
  %44 = load i8, i8* %43, align 1
  %45 = sext i8 %44 to i32
  %46 = icmp ne i32 %45, 0
  br i1 %46, label %47, label %53

47:                                               ; preds = %39
  %48 = load i32, i32* %6, align 4
  %49 = add nsw i32 %48, 1
  store i32 %49, i32* %6, align 4
  br label %50

50:                                               ; preds = %47
  %51 = load i32, i32* %4, align 4
  %52 = add nsw i32 %51, 1
  store i32 %52, i32* %4, align 4
  br label %39

53:                                               ; preds = %39
  store i32 0, i32* %4, align 4
  br label %54

54:                                               ; preds = %139, %53
  %55 = getelementptr inbounds [2 x [500 x i8]], [2 x [500 x i8]]* %8, i64 0, i64 0
  %56 = load i32, i32* %4, align 4
  %57 = sext i32 %56 to i64
  %58 = getelementptr inbounds [500 x i8], [500 x i8]* %55, i64 0, i64 %57
  %59 = load i8, i8* %58, align 1
  %60 = sext i8 %59 to i32
  %61 = icmp ne i32 %60, 0
  br i1 %61, label %62, label %70

62:                                               ; preds = %54
  %63 = getelementptr inbounds [2 x [500 x i8]], [2 x [500 x i8]]* %8, i64 0, i64 1
  %64 = load i32, i32* %4, align 4
  %65 = sext i32 %64 to i64
  %66 = getelementptr inbounds [500 x i8], [500 x i8]* %63, i64 0, i64 %65
  %67 = load i8, i8* %66, align 1
  %68 = sext i8 %67 to i32
  %69 = icmp ne i32 %68, 0
  br label %70

70:                                               ; preds = %62, %54
  %71 = phi i1 [ false, %54 ], [ %69, %62 ]
  br i1 %71, label %72, label %142

72:                                               ; preds = %70
  %73 = getelementptr inbounds [2 x [500 x i8]], [2 x [500 x i8]]* %8, i64 0, i64 0
  %74 = load i32, i32* %4, align 4
  %75 = sext i32 %74 to i64
  %76 = getelementptr inbounds [500 x i8], [500 x i8]* %73, i64 0, i64 %75
  %77 = load i8, i8* %76, align 1
  %78 = sext i8 %77 to i32
  %79 = icmp ne i32 %78, 65
  br i1 %79, label %80, label %104

80:                                               ; preds = %72
  %81 = getelementptr inbounds [2 x [500 x i8]], [2 x [500 x i8]]* %8, i64 0, i64 0
  %82 = load i32, i32* %4, align 4
  %83 = sext i32 %82 to i64
  %84 = getelementptr inbounds [500 x i8], [500 x i8]* %81, i64 0, i64 %83
  %85 = load i8, i8* %84, align 1
  %86 = sext i8 %85 to i32
  %87 = icmp ne i32 %86, 84
  br i1 %87, label %88, label %104

88:                                               ; preds = %80
  %89 = getelementptr inbounds [2 x [500 x i8]], [2 x [500 x i8]]* %8, i64 0, i64 0
  %90 = load i32, i32* %4, align 4
  %91 = sext i32 %90 to i64
  %92 = getelementptr inbounds [500 x i8], [500 x i8]* %89, i64 0, i64 %91
  %93 = load i8, i8* %92, align 1
  %94 = sext i8 %93 to i32
  %95 = icmp ne i32 %94, 67
  br i1 %95, label %96, label %104

96:                                               ; preds = %88
  %97 = getelementptr inbounds [2 x [500 x i8]], [2 x [500 x i8]]* %8, i64 0, i64 0
  %98 = load i32, i32* %4, align 4
  %99 = sext i32 %98 to i64
  %100 = getelementptr inbounds [500 x i8], [500 x i8]* %97, i64 0, i64 %99
  %101 = load i8, i8* %100, align 1
  %102 = sext i8 %101 to i32
  %103 = icmp ne i32 %102, 71
  br i1 %103, label %136, label %104

104:                                              ; preds = %96, %88, %80, %72
  %105 = getelementptr inbounds [2 x [500 x i8]], [2 x [500 x i8]]* %8, i64 0, i64 1
  %106 = load i32, i32* %4, align 4
  %107 = sext i32 %106 to i64
  %108 = getelementptr inbounds [500 x i8], [500 x i8]* %105, i64 0, i64 %107
  %109 = load i8, i8* %108, align 1
  %110 = sext i8 %109 to i32
  %111 = icmp ne i32 %110, 84
  br i1 %111, label %112, label %138

112:                                              ; preds = %104
  %113 = getelementptr inbounds [2 x [500 x i8]], [2 x [500 x i8]]* %8, i64 0, i64 1
  %114 = load i32, i32* %4, align 4
  %115 = sext i32 %114 to i64
  %116 = getelementptr inbounds [500 x i8], [500 x i8]* %113, i64 0, i64 %115
  %117 = load i8, i8* %116, align 1
  %118 = sext i8 %117 to i32
  %119 = icmp ne i32 %118, 71
  br i1 %119, label %120, label %138

120:                                              ; preds = %112
  %121 = getelementptr inbounds [2 x [500 x i8]], [2 x [500 x i8]]* %8, i64 0, i64 1
  %122 = load i32, i32* %4, align 4
  %123 = sext i32 %122 to i64
  %124 = getelementptr inbounds [500 x i8], [500 x i8]* %121, i64 0, i64 %123
  %125 = load i8, i8* %124, align 1
  %126 = sext i8 %125 to i32
  %127 = icmp ne i32 %126, 67
  br i1 %127, label %128, label %138

128:                                              ; preds = %120
  %129 = getelementptr inbounds [2 x [500 x i8]], [2 x [500 x i8]]* %8, i64 0, i64 1
  %130 = load i32, i32* %4, align 4
  %131 = sext i32 %130 to i64
  %132 = getelementptr inbounds [500 x i8], [500 x i8]* %129, i64 0, i64 %131
  %133 = load i8, i8* %132, align 1
  %134 = sext i8 %133 to i32
  %135 = icmp ne i32 %134, 65
  br i1 %135, label %136, label %138

136:                                              ; preds = %128, %96
  %137 = call i32 (i8*, ...) @printf(i8* getelementptr inbounds ([6 x i8], [6 x i8]* @.str.2, i64 0, i64 0))
  store i32 1, i32* %7, align 4
  br label %142

138:                                              ; preds = %128, %120, %112, %104
  br label %139

139:                                              ; preds = %138
  %140 = load i32, i32* %4, align 4
  %141 = add nsw i32 %140, 1
  store i32 %141, i32* %4, align 4
  br label %54

142:                                              ; preds = %136, %70
  %143 = load i32, i32* %7, align 4
  %144 = icmp eq i32 %143, 0
  br i1 %144, label %145, label %208

145:                                              ; preds = %142
  %146 = load i32, i32* %5, align 4
  %147 = load i32, i32* %6, align 4
  %148 = icmp ne i32 %146, %147
  br i1 %148, label %149, label %151

149:                                              ; preds = %145
  %150 = call i32 (i8*, ...) @printf(i8* getelementptr inbounds ([6 x i8], [6 x i8]* @.str.2, i64 0, i64 0))
  br label %207

151:                                              ; preds = %145
  store i32 0, i32* %4, align 4
  br label %152

152:                                              ; preds = %190, %151
  %153 = getelementptr inbounds [2 x [500 x i8]], [2 x [500 x i8]]* %8, i64 0, i64 0
  %154 = load i32, i32* %4, align 4
  %155 = sext i32 %154 to i64
  %156 = getelementptr inbounds [500 x i8], [500 x i8]* %153, i64 0, i64 %155
  %157 = load i8, i8* %156, align 1
  %158 = sext i8 %157 to i32
  %159 = icmp ne i32 %158, 0
  br i1 %159, label %160, label %168

160:                                              ; preds = %152
  %161 = getelementptr inbounds [2 x [500 x i8]], [2 x [500 x i8]]* %8, i64 0, i64 1
  %162 = load i32, i32* %4, align 4
  %163 = sext i32 %162 to i64
  %164 = getelementptr inbounds [500 x i8], [500 x i8]* %161, i64 0, i64 %163
  %165 = load i8, i8* %164, align 1
  %166 = sext i8 %165 to i32
  %167 = icmp ne i32 %166, 0
  br label %168

168:                                              ; preds = %160, %152
  %169 = phi i1 [ false, %152 ], [ %167, %160 ]
  br i1 %169, label %170, label %193

170:                                              ; preds = %168
  %171 = load i32, i32* %3, align 4
  %172 = add nsw i32 %171, 1
  store i32 %172, i32* %3, align 4
  %173 = getelementptr inbounds [2 x [500 x i8]], [2 x [500 x i8]]* %8, i64 0, i64 0
  %174 = load i32, i32* %4, align 4
  %175 = sext i32 %174 to i64
  %176 = getelementptr inbounds [500 x i8], [500 x i8]* %173, i64 0, i64 %175
  %177 = load i8, i8* %176, align 1
  %178 = sext i8 %177 to i32
  %179 = getelementptr inbounds [2 x [500 x i8]], [2 x [500 x i8]]* %8, i64 0, i64 1
  %180 = load i32, i32* %4, align 4
  %181 = sext i32 %180 to i64
  %182 = getelementptr inbounds [500 x i8], [500 x i8]* %179, i64 0, i64 %181
  %183 = load i8, i8* %182, align 1
  %184 = sext i8 %183 to i32
  %185 = icmp eq i32 %178, %184
  br i1 %185, label %186, label %189

186:                                              ; preds = %170
  %187 = load i32, i32* %2, align 4
  %188 = add nsw i32 %187, 1
  store i32 %188, i32* %2, align 4
  br label %189

189:                                              ; preds = %186, %170
  br label %190

190:                                              ; preds = %189
  %191 = load i32, i32* %4, align 4
  %192 = add nsw i32 %191, 1
  store i32 %192, i32* %4, align 4
  br label %152

193:                                              ; preds = %168
  %194 = load i32, i32* %2, align 4
  %195 = sitofp i32 %194 to double
  %196 = fmul double 1.000000e+00, %195
  %197 = load i32, i32* %3, align 4
  %198 = sitofp i32 %197 to double
  %199 = fdiv double %196, %198
  %200 = load double, double* %9, align 8
  %201 = fcmp ole double %199, %200
  br i1 %201, label %202, label %204

202:                                              ; preds = %193
  %203 = call i32 (i8*, ...) @printf(i8* getelementptr inbounds ([3 x i8], [3 x i8]* @.str.3, i64 0, i64 0))
  br label %206

204:                                              ; preds = %193
  %205 = call i32 (i8*, ...) @printf(i8* getelementptr inbounds ([4 x i8], [4 x i8]* @.str.4, i64 0, i64 0))
  br label %206

206:                                              ; preds = %204, %202
  br label %207

207:                                              ; preds = %206, %149
  br label %208

208:                                              ; preds = %207, %142
  ret i32 0
}

declare dso_local i32 @__isoc99_scanf(i8*, ...) #1

declare dso_local i32 @printf(i8*, ...) #1


!llvm.module.flags = !{!0}
!llvm.ident = !{!1}

!0 = !{i32 1, !"wchar_size", i32 4}
!1 = !{!"clang version 10.0.0-4ubuntu1 "}
